target datalayout = "e-m:e-p270:32:32-p271:32:32-p272:64:64-i64:64-i128:128-f80:128-n8:16:32:64-S128"
target triple = "x86_64-pc-linux-gnu"

%struct.SDL_Rect = type { i32, i32, i32, i32 }
%struct.SDL_FPoint = type { float, float }

; Function Attrs: nounwind uwtable
define internal void @rotate(double noundef %0, double noundef %1, double noundef %2, double noundef %3, ptr noundef %4, ptr noundef %5, ptr noundef %6) #0 {
  %8 = alloca double, align 8
  %9 = alloca double, align 8
  %10 = alloca double, align 8
  %11 = alloca double, align 8
  %12 = alloca ptr, align 8
  %13 = alloca ptr, align 8
  %14 = alloca ptr, align 8
  store double %0, ptr %8, align 8
  store double %1, ptr %9, align 8
  store double %2, ptr %10, align 8
  store double %3, ptr %11, align 8
  store ptr %4, ptr %12, align 8
  store ptr %5, ptr %13, align 8
  store ptr %6, ptr %14, align 8
  %15 = load ptr, ptr %12, align 8
  %16 = getelementptr inbounds nuw %struct.SDL_FPoint, ptr %15, i32 0, i32 0
  %17 = load float, ptr %16, align 4
  %18 = fpext float %17 to double
  %19 = load double, ptr %8, align 8
  %20 = fsub double %19, %18
  store double %20, ptr %8, align 8
  %21 = load ptr, ptr %12, align 8
  %22 = getelementptr inbounds nuw %struct.SDL_FPoint, ptr %21, i32 0, i32 1
  %23 = load float, ptr %22, align 4
  %24 = fpext float %23 to double
  %25 = load double, ptr %9, align 8
  %26 = fsub double %25, %24
  store double %26, ptr %9, align 8
  %27 = load double, ptr %11, align 8
  %28 = load double, ptr %8, align 8
  %29 = load double, ptr %10, align 8
  %30 = load double, ptr %9, align 8
  %31 = fmul double %29, %30
  %32 = fneg double %31
  %33 = call double @llvm.fmuladd.f64(double %27, double %28, double %32)
  %34 = load ptr, ptr %13, align 8
  store double %33, ptr %34, align 8
  %35 = load double, ptr %10, align 8
  %36 = load double, ptr %8, align 8
  %37 = load double, ptr %11, align 8
  %38 = load double, ptr %9, align 8
  %39 = fmul double %37, %38
  %40 = call double @llvm.fmuladd.f64(double %35, double %36, double %39)
  %41 = load ptr, ptr %14, align 8
  store double %40, ptr %41, align 8
  %42 = load ptr, ptr %12, align 8
  %43 = getelementptr inbounds nuw %struct.SDL_FPoint, ptr %42, i32 0, i32 0
  %44 = load float, ptr %43, align 4
  %45 = fpext float %44 to double
  %46 = load ptr, ptr %13, align 8
  %47 = load double, ptr %46, align 8
  %48 = fadd double %47, %45
  store double %48, ptr %46, align 8
  %49 = load ptr, ptr %12, align 8
  %50 = getelementptr inbounds nuw %struct.SDL_FPoint, ptr %49, i32 0, i32 1
  %51 = load float, ptr %50, align 4
  %52 = fpext float %51 to double
  %53 = load ptr, ptr %14, align 8
  %54 = load double, ptr %53, align 8
  %55 = fadd double %54, %52
  store double %55, ptr %53, align 8
  ret void
}

; Function Attrs: nounwind uwtable
define hidden void @SDLgfx_rotozoomSurfaceSizeTrig(i32 noundef %0, i32 noundef %1, double noundef %2, ptr noundef %3, ptr noundef %4, ptr noundef %5, ptr noundef %6) #0 {
  %8 = alloca i32, align 4
  %9 = alloca i32, align 4
  %10 = alloca double, align 8
  %11 = alloca ptr, align 8
  %12 = alloca ptr, align 8
  %13 = alloca ptr, align 8
  %14 = alloca ptr, align 8
  %15 = alloca i32, align 4
  %16 = alloca i32, align 4
  %17 = alloca i32, align 4
  %18 = alloca i32, align 4
  %19 = alloca double, align 8
  %20 = alloca double, align 8
  %21 = alloca double, align 8
  %22 = alloca double, align 8
  %23 = alloca double, align 8
  %24 = alloca double, align 8
  %25 = alloca double, align 8
  %26 = alloca double, align 8
  %27 = alloca double, align 8
  %28 = alloca double, align 8
  %29 = alloca double, align 8
  %30 = alloca i32, align 4
  store i32 %0, ptr %8, align 4
  store i32 %1, ptr %9, align 4
  store double %2, ptr %10, align 8
  store ptr %3, ptr %11, align 8
  store ptr %4, ptr %12, align 8
  store ptr %5, ptr %13, align 8
  store ptr %6, ptr %14, align 8
  call void @llvm.lifetime.start.p0(i64 4, ptr %15) #6
  call void @llvm.lifetime.start.p0(i64 4, ptr %16) #6
  call void @llvm.lifetime.start.p0(i64 4, ptr %17) #6
  call void @llvm.lifetime.start.p0(i64 4, ptr %18) #6
  call void @llvm.lifetime.start.p0(i64 8, ptr %19) #6
  call void @llvm.lifetime.start.p0(i64 8, ptr %20) #6
  call void @llvm.lifetime.start.p0(i64 8, ptr %21) #6
  call void @llvm.lifetime.start.p0(i64 8, ptr %22) #6
  call void @llvm.lifetime.start.p0(i64 8, ptr %23) #6
  call void @llvm.lifetime.start.p0(i64 8, ptr %24) #6
  call void @llvm.lifetime.start.p0(i64 8, ptr %25) #6
  call void @llvm.lifetime.start.p0(i64 8, ptr %26) #6
  call void @llvm.lifetime.start.p0(i64 8, ptr %27) #6
  call void @llvm.lifetime.start.p0(i64 8, ptr %28) #6
  call void @llvm.lifetime.start.p0(i64 8, ptr %29) #6
  %31 = load double, ptr %10, align 8
  %32 = fmul double %31, 0x3F91DF46A2529D39
  store double %32, ptr %19, align 8
  %33 = load double, ptr %19, align 8
  %34 = call double @SDL_sin_REAL(double noundef %33)
  store double %34, ptr %28, align 8
  %35 = load double, ptr %19, align 8
  %36 = call double @SDL_cos_REAL(double noundef %35)
  store double %36, ptr %29, align 8
  %37 = load double, ptr %28, align 8
  %38 = load double, ptr %29, align 8
  %39 = load ptr, ptr %11, align 8
  call void @rotate(double noundef 5.000000e-01, double noundef 5.000000e-01, double noundef %37, double noundef %38, ptr noundef %39, ptr noundef %20, ptr noundef %24)
  %40 = load i32, ptr %8, align 4
  %41 = sitofp i32 %40 to double
  %42 = fsub double %41, 5.000000e-01
  %43 = load double, ptr %28, align 8
  %44 = load double, ptr %29, align 8
  %45 = load ptr, ptr %11, align 8
  call void @rotate(double noundef %42, double noundef 5.000000e-01, double noundef %43, double noundef %44, ptr noundef %45, ptr noundef %21, ptr noundef %25)
  %46 = load i32, ptr %9, align 4
  %47 = sitofp i32 %46 to double
  %48 = fsub double %47, 5.000000e-01
  %49 = load double, ptr %28, align 8
  %50 = load double, ptr %29, align 8
  %51 = load ptr, ptr %11, align 8
  call void @rotate(double noundef 5.000000e-01, double noundef %48, double noundef %49, double noundef %50, ptr noundef %51, ptr noundef %22, ptr noundef %26)
  %52 = load i32, ptr %8, align 4
  %53 = sitofp i32 %52 to double
  %54 = fsub double %53, 5.000000e-01
  %55 = load i32, ptr %9, align 4
  %56 = sitofp i32 %55 to double
  %57 = fsub double %56, 5.000000e-01
  %58 = load double, ptr %28, align 8
  %59 = load double, ptr %29, align 8
  %60 = load ptr, ptr %11, align 8
  call void @rotate(double noundef %54, double noundef %57, double noundef %58, double noundef %59, ptr noundef %60, ptr noundef %23, ptr noundef %27)
  %61 = load double, ptr %20, align 8
  %62 = load double, ptr %21, align 8
  %63 = fcmp olt double %61, %62
  br i1 %63, label %64, label %66

64:                                               ; preds = %7
  %65 = load double, ptr %20, align 8
  br label %68

66:                                               ; preds = %7
  %67 = load double, ptr %21, align 8
  br label %68

68:                                               ; preds = %66, %64
  %69 = phi double [ %65, %64 ], [ %67, %66 ]
  %70 = load double, ptr %22, align 8
  %71 = load double, ptr %23, align 8
  %72 = fcmp olt double %70, %71
  br i1 %72, label %73, label %75

73:                                               ; preds = %68
  %74 = load double, ptr %22, align 8
  br label %77

75:                                               ; preds = %68
  %76 = load double, ptr %23, align 8
  br label %77

77:                                               ; preds = %75, %73
  %78 = phi double [ %74, %73 ], [ %76, %75 ]
  %79 = fcmp olt double %69, %78
  br i1 %79, label %80, label %90

80:                                               ; preds = %77
  %81 = load double, ptr %20, align 8
  %82 = load double, ptr %21, align 8
  %83 = fcmp olt double %81, %82
  br i1 %83, label %84, label %86

84:                                               ; preds = %80
  %85 = load double, ptr %20, align 8
  br label %88

86:                                               ; preds = %80
  %87 = load double, ptr %21, align 8
  br label %88

88:                                               ; preds = %86, %84
  %89 = phi double [ %85, %84 ], [ %87, %86 ]
  br label %100

90:                                               ; preds = %77
  %91 = load double, ptr %22, align 8
  %92 = load double, ptr %23, align 8
  %93 = fcmp olt double %91, %92
  br i1 %93, label %94, label %96

94:                                               ; preds = %90
  %95 = load double, ptr %22, align 8
  br label %98

96:                                               ; preds = %90
  %97 = load double, ptr %23, align 8
  br label %98

98:                                               ; preds = %96, %94
  %99 = phi double [ %95, %94 ], [ %97, %96 ]
  br label %100

100:                                              ; preds = %98, %88
  %101 = phi double [ %89, %88 ], [ %99, %98 ]
  %102 = call double @SDL_floor_REAL(double noundef %101)
  %103 = fptosi double %102 to i32
  store i32 %103, ptr %15, align 4
  %104 = load double, ptr %20, align 8
  %105 = load double, ptr %21, align 8
  %106 = fcmp ogt double %104, %105
  br i1 %106, label %107, label %109

107:                                              ; preds = %100
  %108 = load double, ptr %20, align 8
  br label %111

109:                                              ; preds = %100
  %110 = load double, ptr %21, align 8
  br label %111

111:                                              ; preds = %109, %107
  %112 = phi double [ %108, %107 ], [ %110, %109 ]
  %113 = load double, ptr %22, align 8
  %114 = load double, ptr %23, align 8
  %115 = fcmp ogt double %113, %114
  br i1 %115, label %116, label %118

116:                                              ; preds = %111
  %117 = load double, ptr %22, align 8
  br label %120

118:                                              ; preds = %111
  %119 = load double, ptr %23, align 8
  br label %120

120:                                              ; preds = %118, %116
  %121 = phi double [ %117, %116 ], [ %119, %118 ]
  %122 = fcmp ogt double %112, %121
  br i1 %122, label %123, label %133

123:                                              ; preds = %120
  %124 = load double, ptr %20, align 8
  %125 = load double, ptr %21, align 8
  %126 = fcmp ogt double %124, %125
  br i1 %126, label %127, label %129

127:                                              ; preds = %123
  %128 = load double, ptr %20, align 8
  br label %131

129:                                              ; preds = %123
  %130 = load double, ptr %21, align 8
  br label %131

131:                                              ; preds = %129, %127
  %132 = phi double [ %128, %127 ], [ %130, %129 ]
  br label %143

133:                                              ; preds = %120
  %134 = load double, ptr %22, align 8
  %135 = load double, ptr %23, align 8
  %136 = fcmp ogt double %134, %135
  br i1 %136, label %137, label %139

137:                                              ; preds = %133
  %138 = load double, ptr %22, align 8
  br label %141

139:                                              ; preds = %133
  %140 = load double, ptr %23, align 8
  br label %141

141:                                              ; preds = %139, %137
  %142 = phi double [ %138, %137 ], [ %140, %139 ]
  br label %143

143:                                              ; preds = %141, %131
  %144 = phi double [ %132, %131 ], [ %142, %141 ]
  %145 = call double @SDL_ceil_REAL(double noundef %144)
  %146 = fptosi double %145 to i32
  store i32 %146, ptr %16, align 4
  %147 = load double, ptr %24, align 8
  %148 = load double, ptr %25, align 8
  %149 = fcmp olt double %147, %148
  br i1 %149, label %150, label %152

150:                                              ; preds = %143
  %151 = load double, ptr %24, align 8
  br label %154

152:                                              ; preds = %143
  %153 = load double, ptr %25, align 8
  br label %154

154:                                              ; preds = %152, %150
  %155 = phi double [ %151, %150 ], [ %153, %152 ]
  %156 = load double, ptr %26, align 8
  %157 = load double, ptr %27, align 8
  %158 = fcmp olt double %156, %157
  br i1 %158, label %159, label %161

159:                                              ; preds = %154
  %160 = load double, ptr %26, align 8
  br label %163

161:                                              ; preds = %154
  %162 = load double, ptr %27, align 8
  br label %163

163:                                              ; preds = %161, %159
  %164 = phi double [ %160, %159 ], [ %162, %161 ]
  %165 = fcmp olt double %155, %164
  br i1 %165, label %166, label %176

166:                                              ; preds = %163
  %167 = load double, ptr %24, align 8
  %168 = load double, ptr %25, align 8
  %169 = fcmp olt double %167, %168
  br i1 %169, label %170, label %172

170:                                              ; preds = %166
  %171 = load double, ptr %24, align 8
  br label %174

172:                                              ; preds = %166
  %173 = load double, ptr %25, align 8
  br label %174

174:                                              ; preds = %172, %170
  %175 = phi double [ %171, %170 ], [ %173, %172 ]
  br label %186

176:                                              ; preds = %163
  %177 = load double, ptr %26, align 8
  %178 = load double, ptr %27, align 8
  %179 = fcmp olt double %177, %178
  br i1 %179, label %180, label %182

180:                                              ; preds = %176
  %181 = load double, ptr %26, align 8
  br label %184

182:                                              ; preds = %176
  %183 = load double, ptr %27, align 8
  br label %184

184:                                              ; preds = %182, %180
  %185 = phi double [ %181, %180 ], [ %183, %182 ]
  br label %186

186:                                              ; preds = %184, %174
  %187 = phi double [ %175, %174 ], [ %185, %184 ]
  %188 = call double @SDL_floor_REAL(double noundef %187)
  %189 = fptosi double %188 to i32
  store i32 %189, ptr %17, align 4
  %190 = load double, ptr %24, align 8
  %191 = load double, ptr %25, align 8
  %192 = fcmp ogt double %190, %191
  br i1 %192, label %193, label %195

193:                                              ; preds = %186
  %194 = load double, ptr %24, align 8
  br label %197

195:                                              ; preds = %186
  %196 = load double, ptr %25, align 8
  br label %197

197:                                              ; preds = %195, %193
  %198 = phi double [ %194, %193 ], [ %196, %195 ]
  %199 = load double, ptr %26, align 8
  %200 = load double, ptr %27, align 8
  %201 = fcmp ogt double %199, %200
  br i1 %201, label %202, label %204

202:                                              ; preds = %197
  %203 = load double, ptr %26, align 8
  br label %206

204:                                              ; preds = %197
  %205 = load double, ptr %27, align 8
  br label %206

206:                                              ; preds = %204, %202
  %207 = phi double [ %203, %202 ], [ %205, %204 ]
  %208 = fcmp ogt double %198, %207
  br i1 %208, label %209, label %219

209:                                              ; preds = %206
  %210 = load double, ptr %24, align 8
  %211 = load double, ptr %25, align 8
  %212 = fcmp ogt double %210, %211
  br i1 %212, label %213, label %215

213:                                              ; preds = %209
  %214 = load double, ptr %24, align 8
  br label %217

215:                                              ; preds = %209
  %216 = load double, ptr %25, align 8
  br label %217

217:                                              ; preds = %215, %213
  %218 = phi double [ %214, %213 ], [ %216, %215 ]
  br label %229

219:                                              ; preds = %206
  %220 = load double, ptr %26, align 8
  %221 = load double, ptr %27, align 8
  %222 = fcmp ogt double %220, %221
  br i1 %222, label %223, label %225

223:                                              ; preds = %219
  %224 = load double, ptr %26, align 8
  br label %227

225:                                              ; preds = %219
  %226 = load double, ptr %27, align 8
  br label %227

227:                                              ; preds = %225, %223
  %228 = phi double [ %224, %223 ], [ %226, %225 ]
  br label %229

229:                                              ; preds = %227, %217
  %230 = phi double [ %218, %217 ], [ %228, %227 ]
  %231 = call double @SDL_ceil_REAL(double noundef %230)
  %232 = fptosi double %231 to i32
  store i32 %232, ptr %18, align 4
  %233 = load i32, ptr %16, align 4
  %234 = load i32, ptr %15, align 4
  %235 = sub nsw i32 %233, %234
  %236 = load ptr, ptr %12, align 8
  %237 = getelementptr inbounds nuw %struct.SDL_Rect, ptr %236, i32 0, i32 2
  store i32 %235, ptr %237, align 4
  %238 = load i32, ptr %18, align 4
  %239 = load i32, ptr %17, align 4
  %240 = sub nsw i32 %238, %239
  %241 = load ptr, ptr %12, align 8
  %242 = getelementptr inbounds nuw %struct.SDL_Rect, ptr %241, i32 0, i32 3
  store i32 %240, ptr %242, align 4
  %243 = load i32, ptr %15, align 4
  %244 = load ptr, ptr %12, align 8
  %245 = getelementptr inbounds nuw %struct.SDL_Rect, ptr %244, i32 0, i32 0
  store i32 %243, ptr %245, align 4
  %246 = load i32, ptr %17, align 4
  %247 = load ptr, ptr %12, align 8
  %248 = getelementptr inbounds nuw %struct.SDL_Rect, ptr %247, i32 0, i32 1
  store i32 %246, ptr %248, align 4
  %249 = load double, ptr %28, align 8
  %250 = fneg double %249
  %251 = load ptr, ptr %14, align 8
  store double %250, ptr %251, align 8
  %252 = load double, ptr %29, align 8
  %253 = load ptr, ptr %13, align 8
  store double %252, ptr %253, align 8
  call void @llvm.lifetime.start.p0(i64 4, ptr %30) #6
  %254 = load double, ptr %10, align 8
  %255 = fdiv double %254, 9.000000e+01
  %256 = fptosi double %255 to i32
  store i32 %256, ptr %30, align 4
  %257 = load i32, ptr %30, align 4
  %258 = sitofp i32 %257 to double
  %259 = load double, ptr %10, align 8
  %260 = fdiv double %259, 9.000000e+01
  %261 = fcmp oeq double %258, %260
  br i1 %261, label %262, label %301

262:                                              ; preds = %229
  %263 = load i32, ptr %30, align 4
  %264 = srem i32 %263, 4
  store i32 %264, ptr %30, align 4
  %265 = load i32, ptr %30, align 4
  %266 = icmp slt i32 %265, 0
  br i1 %266, label %267, label %270

267:                                              ; preds = %262
  %268 = load i32, ptr %30, align 4
  %269 = add nsw i32 %268, 4
  store i32 %269, ptr %30, align 4
  br label %270

270:                                              ; preds = %267, %262
  %271 = load i32, ptr %30, align 4
  %272 = and i32 %271, 1
  %273 = icmp ne i32 %272, 0
  br i1 %273, label %274, label %287

274:                                              ; preds = %270
  %275 = load i32, ptr %9, align 4
  %276 = load ptr, ptr %12, align 8
  %277 = getelementptr inbounds nuw %struct.SDL_Rect, ptr %276, i32 0, i32 2
  store i32 %275, ptr %277, align 4
  %278 = load i32, ptr %8, align 4
  %279 = load ptr, ptr %12, align 8
  %280 = getelementptr inbounds nuw %struct.SDL_Rect, ptr %279, i32 0, i32 3
  store i32 %278, ptr %280, align 4
  %281 = load ptr, ptr %13, align 8
  store double 0.000000e+00, ptr %281, align 8
  %282 = load i32, ptr %30, align 4
  %283 = icmp eq i32 %282, 1
  %284 = select i1 %283, i32 -1, i32 1
  %285 = sitofp i32 %284 to double
  %286 = load ptr, ptr %14, align 8
  store double %285, ptr %286, align 8
  br label %300

287:                                              ; preds = %270
  %288 = load i32, ptr %8, align 4
  %289 = load ptr, ptr %12, align 8
  %290 = getelementptr inbounds nuw %struct.SDL_Rect, ptr %289, i32 0, i32 2
  store i32 %288, ptr %290, align 4
  %291 = load i32, ptr %9, align 4
  %292 = load ptr, ptr %12, align 8
  %293 = getelementptr inbounds nuw %struct.SDL_Rect, ptr %292, i32 0, i32 3
  store i32 %291, ptr %293, align 4
  %294 = load i32, ptr %30, align 4
  %295 = icmp eq i32 %294, 0
  %296 = select i1 %295, i32 1, i32 -1
  %297 = sitofp i32 %296 to double
  %298 = load ptr, ptr %13, align 8
  store double %297, ptr %298, align 8
  %299 = load ptr, ptr %14, align 8
  store double 0.000000e+00, ptr %299, align 8
  br label %300

300:                                              ; preds = %287, %274
  br label %301

301:                                              ; preds = %300, %229
  call void @llvm.lifetime.end.p0(i64 4, ptr %30) #6
  call void @llvm.lifetime.end.p0(i64 8, ptr %29) #6
  call void @llvm.lifetime.end.p0(i64 8, ptr %28) #6
  call void @llvm.lifetime.end.p0(i64 8, ptr %27) #6
  call void @llvm.lifetime.end.p0(i64 8, ptr %26) #6
  call void @llvm.lifetime.end.p0(i64 8, ptr %25) #6
  call void @llvm.lifetime.end.p0(i64 8, ptr %24) #6
  call void @llvm.lifetime.end.p0(i64 8, ptr %23) #6
  call void @llvm.lifetime.end.p0(i64 8, ptr %22) #6
  call void @llvm.lifetime.end.p0(i64 8, ptr %21) #6
  call void @llvm.lifetime.end.p0(i64 8, ptr %20) #6
  call void @llvm.lifetime.end.p0(i64 8, ptr %19) #6
  call void @llvm.lifetime.end.p0(i64 4, ptr %18) #6
  call void @llvm.lifetime.end.p0(i64 4, ptr %17) #6
  call void @llvm.lifetime.end.p0(i64 4, ptr %16) #6
  call void @llvm.lifetime.end.p0(i64 4, ptr %15) #6
  ret void
}