; Function Attrs: nounwind uwtable
define hidden void @SDLgfx_rotozoomSurfaceSizeTrig(i32 noundef %0, i32 noundef %1, double noundef %2, ptr noundef readonly captures(none) %3, ptr noundef writeonly captures(none) initializes((0, 16)) %4, ptr noundef writeonly captures(none) initializes((0, 8)) %5, ptr noundef writeonly captures(none) initializes((0, 8)) %6) local_unnamed_addr #0 {
  %8 = fmul double %2, 0x3F91DF46A2529D39
  %9 = tail call double @SDL_sin_REAL(double noundef %8) #6
  %10 = tail call double @SDL_cos_REAL(double noundef %8) #6
  %11 = load float, ptr %3, align 4
  %12 = fpext float %11 to double
  %13 = fsub double 5.000000e-01, %12
  %14 = getelementptr inbounds nuw i8, ptr %3, i64 4
  %15 = load float, ptr %14, align 4
  %16 = fpext float %15 to double
  %17 = fsub double 5.000000e-01, %16
  %18 = fneg double %17
  %19 = fmul double %9, %18
  %20 = tail call double @llvm.fmuladd.f64(double %10, double %13, double %19)
  %21 = fmul double %10, %17
  %22 = tail call double @llvm.fmuladd.f64(double %9, double %13, double %21)
  %23 = fadd double %20, %12
  %24 = fadd double %22, %16
  %25 = sitofp i32 %0 to double
  %26 = fadd double %25, -5.000000e-01
  %27 = fsub double %26, %12
  %28 = tail call double @llvm.fmuladd.f64(double %10, double %27, double %19)
  %29 = tail call double @llvm.fmuladd.f64(double %9, double %27, double %21)
  %30 = fadd double %28, %12
  %31 = fadd double %29, %16
  %32 = sitofp i32 %1 to double
  %33 = fadd double %32, -5.000000e-01
  %34 = fsub double %33, %16
  %35 = fneg double %34
  %36 = fmul double %9, %35
  %37 = tail call double @llvm.fmuladd.f64(double %10, double %13, double %36)
  %38 = fmul double %10, %34
  %39 = tail call double @llvm.fmuladd.f64(double %9, double %13, double %38)
  %40 = fadd double %37, %12
  %41 = fadd double %39, %16
  %42 = tail call double @llvm.fmuladd.f64(double %10, double %27, double %36)
  %43 = tail call double @llvm.fmuladd.f64(double %9, double %27, double %38)
  %44 = fadd double %42, %12
  %45 = fadd double %43, %16
  %46 = fcmp olt double %23, %30
  %47 = select i1 %46, double %23, double %30
  %48 = fcmp olt double %40, %44
  %49 = select i1 %48, double %40, double %44
  %50 = fcmp olt double %47, %49
  %. = select i1 %50, double %47, double %49
  %51 = tail call double @SDL_floor_REAL(double noundef %.) #6
  %52 = fptosi double %51 to i32
  %53 = fcmp ogt double %23, %30
  %54 = select i1 %53, double %23, double %30
  %55 = fcmp ogt double %40, %44
  %56 = select i1 %55, double %40, double %44
  %57 = fcmp ogt double %54, %56
  %58 = select i1 %57, double %54, double %56
  %59 = tail call double @SDL_ceil_REAL(double noundef %58) #6
  %60 = fptosi double %59 to i32
  %61 = fcmp olt double %24, %31
  %62 = select i1 %61, double %24, double %31
  %63 = fcmp olt double %41, %45
  %64 = select i1 %63, double %41, double %45
  %65 = fcmp olt double %62, %64
  %66 = select i1 %65, double %62, double %64
  %67 = tail call double @SDL_floor_REAL(double noundef %66) #6
  %68 = fptosi double %67 to i32
  %69 = fcmp ogt double %24, %31
  %70 = select i1 %69, double %24, double %31
  %71 = fcmp ogt double %41, %45
  %72 = select i1 %71, double %41, double %45
  %73 = fcmp ogt double %70, %72
  %74 = select i1 %73, double %70, double %72
  %75 = tail call double @SDL_ceil_REAL(double noundef %74) #6
  %76 = fptosi double %75 to i32
  %77 = sub nsw i32 %60, %52
  %78 = getelementptr inbounds nuw i8, ptr %4, i64 8
  store i32 %77, ptr %78, align 4
  %79 = sub nsw i32 %76, %68
  %80 = getelementptr inbounds nuw i8, ptr %4, i64 12
  store i32 %79, ptr %80, align 4
  store i32 %52, ptr %4, align 4
  %81 = getelementptr inbounds nuw i8, ptr %4, i64 4
  store i32 %68, ptr %81, align 4
  %82 = fneg double %9
  store double %82, ptr %6, align 8
  store double %10, ptr %5, align 8
  %83 = fdiv double %2, 9.000000e+01
  %84 = fptosi double %83 to i32
  %85 = sitofp i32 %84 to double
  %86 = fcmp oeq double %83, %85
  br i1 %86, label %87, label %97

87:                                               ; preds = %7
  %spec.select = and i32 %84, 3
  %88 = and i32 %84, 1
  %.not = icmp eq i32 %88, 0
  br i1 %.not, label %93, label %89

89:                                               ; preds = %87
  store i32 %1, ptr %78, align 4
  store i32 %0, ptr %80, align 4
  store double 0.000000e+00, ptr %5, align 8
  %90 = icmp eq i32 %spec.select, 1
  %91 = select i1 %90, i32 -1, i32 1
  %92 = sitofp i32 %91 to double
  br label %.sink.split

93:                                               ; preds = %87
  store i32 %0, ptr %78, align 4
  store i32 %1, ptr %80, align 4
  %94 = icmp eq i32 %spec.select, 0
  %95 = select i1 %94, i32 1, i32 -1
  %96 = sitofp i32 %95 to double
  store double %96, ptr %5, align 8
  br label %.sink.split

.sink.split:                                      ; preds = %93, %89
  %.sink = phi double [ %92, %89 ], [ 0.000000e+00, %93 ]
  store double %.sink, ptr %6, align 8
  br label %97

97:                                               ; preds = %.sink.split, %7
  ret void
}